; Function Attrs: mustprogress nounwind uwtable
define dso_local noundef nonnull align 8 dereferenceable(48) ptr @_ZN4llvm3rdflsERNS_11raw_ostreamERKNS0_5PrintINS0_8NodeAddrIPNS0_10PhiUseNodeEEEEE(ptr noundef nonnull returned align 8 dereferenceable(48) %0, ptr noundef nonnull readonly align 8 captures(none) dereferenceable(16) %1) local_unnamed_addr #0 {
  %3 = alloca i32, align 4
  %4 = alloca %"struct.llvm::rdf::Print.57", align 8
  %5 = alloca i32, align 4
  %6 = alloca %"struct.llvm::rdf::Print.57", align 8
  %7 = alloca i32, align 4
  %8 = alloca %"struct.llvm::rdf::Print.57", align 8
  %9 = load ptr, ptr %1, align 8
  %10 = load ptr, ptr %9, align 8
  %11 = getelementptr inbounds nuw i8, ptr %9, i64 8
  %12 = load i32, ptr %11, align 8
  %13 = getelementptr inbounds nuw i8, ptr %1, i64 8
  %14 = load ptr, ptr %13, align 8
  tail call fastcc void @_ZN4llvm3rdfL14printRefHeaderERNS_11raw_ostreamENS0_8NodeAddrIPNS0_7RefNodeEEERKNS0_13DataFlowGraphE(ptr noundef nonnull align 8 dereferenceable(48) %0, ptr %10, i32 %12, ptr noundef nonnull align 8 dereferenceable(736) %14)
  %15 = getelementptr inbounds nuw i8, ptr %0, i64 32
  %16 = load ptr, ptr %15, align 8
  %17 = getelementptr inbounds nuw i8, ptr %0, i64 24
  %18 = load ptr, ptr %17, align 8
  %.not.i = icmp ult ptr %16, %18
  br i1 %.not.i, label %21, label %19

19:                                               ; preds = %2
  %20 = tail call noundef nonnull align 8 dereferenceable(48) ptr @_ZN4llvm11raw_ostream5writeEh(ptr noundef nonnull align 8 dereferenceable(48) %0, i8 noundef zeroext 40) #22
  br label %_ZN4llvm11raw_ostreamlsEc.exit

21:                                               ; preds = %2
  %22 = getelementptr inbounds nuw i8, ptr %16, i64 1
  store ptr %22, ptr %15, align 8
  store i8 40, ptr %16, align 1
  br label %_ZN4llvm11raw_ostreamlsEc.exit

_ZN4llvm11raw_ostreamlsEc.exit:                   ; preds = %19, %21
  %23 = load ptr, ptr %1, align 8
  %24 = load ptr, ptr %23, align 8
  %25 = getelementptr inbounds nuw i8, ptr %24, i64 8
  %26 = load i32, ptr %25, align 8
  store i32 %26, ptr %3, align 4
  %.not = icmp eq i32 %26, 0
  br i1 %.not, label %31, label %27

27:                                               ; preds = %_ZN4llvm11raw_ostreamlsEc.exit
  %28 = load ptr, ptr %13, align 8
  store ptr %3, ptr %4, align 8
  %29 = getelementptr inbounds nuw i8, ptr %4, i64 8
  store ptr %28, ptr %29, align 8
  %30 = call noundef nonnull align 8 dereferenceable(48) ptr @_ZN4llvm3rdflsERNS_11raw_ostreamERKNS0_5PrintIjEE(ptr noundef nonnull align 8 dereferenceable(48) %0, ptr noundef nonnull align 8 dereferenceable(16) %4)
  br label %31

31:                                               ; preds = %27, %_ZN4llvm11raw_ostreamlsEc.exit
  %32 = load ptr, ptr %15, align 8
  %33 = load ptr, ptr %17, align 8
  %.not.i18 = icmp ult ptr %32, %33
  br i1 %.not.i18, label %36, label %34

34:                                               ; preds = %31
  %35 = call noundef nonnull align 8 dereferenceable(48) ptr @_ZN4llvm11raw_ostream5writeEh(ptr noundef nonnull align 8 dereferenceable(48) %0, i8 noundef zeroext 44) #22
  br label %_ZN4llvm11raw_ostreamlsEc.exit20

36:                                               ; preds = %31
  %37 = getelementptr inbounds nuw i8, ptr %32, i64 1
  store ptr %37, ptr %15, align 8
  store i8 44, ptr %32, align 1
  br label %_ZN4llvm11raw_ostreamlsEc.exit20

_ZN4llvm11raw_ostreamlsEc.exit20:                 ; preds = %34, %36
  %38 = load ptr, ptr %1, align 8
  %39 = load ptr, ptr %38, align 8
  %40 = getelementptr inbounds nuw i8, ptr %39, i64 16
  %41 = load i32, ptr %40, align 8
  store i32 %41, ptr %5, align 4
  %.not16 = icmp eq i32 %41, 0
  br i1 %.not16, label %46, label %42

42:                                               ; preds = %_ZN4llvm11raw_ostreamlsEc.exit20
  %43 = load ptr, ptr %13, align 8
  store ptr %5, ptr %6, align 8
  %44 = getelementptr inbounds nuw i8, ptr %6, i64 8
  store ptr %43, ptr %44, align 8
  %45 = call noundef nonnull align 8 dereferenceable(48) ptr @_ZN4llvm3rdflsERNS_11raw_ostreamERKNS0_5PrintIjEE(ptr noundef nonnull align 8 dereferenceable(48) %0, ptr noundef nonnull align 8 dereferenceable(16) %6)
  br label %46

46:                                               ; preds = %42, %_ZN4llvm11raw_ostreamlsEc.exit20
  %47 = load ptr, ptr %17, align 8
  %48 = load ptr, ptr %15, align 8
  %49 = ptrtoint ptr %47 to i64
  %50 = ptrtoint ptr %48 to i64
  %51 = sub i64 %49, %50
  %52 = icmp ult i64 %51, 2
  br i1 %52, label %53, label %55

53:                                               ; preds = %46
  %54 = call noundef nonnull align 8 dereferenceable(48) ptr @_ZN4llvm11raw_ostream5writeEPKcm(ptr noundef nonnull align 8 dereferenceable(48) %0, ptr noundef nonnull @.str.3, i64 noundef 2) #22
  br label %_ZN4llvm11raw_ostreamlsEPKc.exit

55:                                               ; preds = %46
  store i16 14889, ptr %48, align 1
  %56 = load ptr, ptr %15, align 8
  %57 = getelementptr inbounds nuw i8, ptr %56, i64 2
  store ptr %57, ptr %15, align 8
  br label %_ZN4llvm11raw_ostreamlsEPKc.exit

_ZN4llvm11raw_ostreamlsEPKc.exit:                 ; preds = %53, %55
  %58 = load ptr, ptr %1, align 8
  %59 = load ptr, ptr %58, align 8
  %60 = getelementptr inbounds nuw i8, ptr %59, i64 12
  %61 = load i32, ptr %60, align 4
  store i32 %61, ptr %7, align 4
  %.not17 = icmp eq i32 %61, 0
  br i1 %.not17, label %66, label %62

62:                                               ; preds = %_ZN4llvm11raw_ostreamlsEPKc.exit
  %63 = load ptr, ptr %13, align 8
  store ptr %7, ptr %8, align 8
  %64 = getelementptr inbounds nuw i8, ptr %8, i64 8
  store ptr %63, ptr %64, align 8
  %65 = call noundef nonnull align 8 dereferenceable(48) ptr @_ZN4llvm3rdflsERNS_11raw_ostreamERKNS0_5PrintIjEE(ptr noundef nonnull align 8 dereferenceable(48) %0, ptr noundef nonnull align 8 dereferenceable(16) %8)
  br label %66

66:                                               ; preds = %62, %_ZN4llvm11raw_ostreamlsEPKc.exit
  ret ptr %0
}